target datalayout = "e-m:e-p270:32:32-p271:32:32-p272:64:64-i64:64-i128:128-f80:128-n8:16:32:64-S128"
target triple = "x86_64-pc-linux-gnu"

%"class.std::basic_streambuf" = type { ptr, ptr, ptr, ptr, ptr, ptr, ptr, %"class.std::locale" }
%"class.std::locale" = type { ptr }
%"class.boost::nowide::detail::console_input_buffer_base" = type <{ %"class.std::basic_streambuf", [4096 x i8], [1024 x i32], i64, %"class.std::vector", i8, [7 x i8] }>
%"class.std::vector" = type { %"struct.std::_Vector_base" }
%"struct.std::_Vector_base" = type { %"struct.std::_Vector_base<char, std::allocator<char>>::_Vector_impl" }
%"struct.std::_Vector_base<char, std::allocator<char>>::_Vector_impl" = type { %"struct.std::_Vector_base<char, std::allocator<char>>::_Vector_impl_data" }
%"struct.std::_Vector_base<char, std::allocator<char>>::_Vector_impl_data" = type { ptr, ptr, ptr }

; Function Attrs: inlinehint mustprogress nounwind uwtable
define linkonce_odr hidden noundef zeroext i1 @_ZN5boost6nowide3utf18is_valid_codepointEj(i32 noundef %0) #4 comdat {
  %2 = alloca i1, align 1
  %3 = alloca i32, align 4
  store i32 %0, ptr %3, align 4, !tbaa !9
  %4 = load i32, ptr %3, align 4, !tbaa !9
  %5 = icmp ugt i32 %4, 1114111
  br i1 %5, label %6, label %7

6:                                                ; preds = %1
  store i1 false, ptr %2, align 1
  br label %15

7:                                                ; preds = %1
  %8 = load i32, ptr %3, align 4, !tbaa !9
  %9 = icmp ule i32 55296, %8
  br i1 %9, label %10, label %14

10:                                               ; preds = %7
  %11 = load i32, ptr %3, align 4, !tbaa !9
  %12 = icmp ule i32 %11, 57343
  br i1 %12, label %13, label %14

13:                                               ; preds = %10
  store i1 false, ptr %2, align 1
  br label %15

14:                                               ; preds = %10, %7
  store i1 true, ptr %2, align 1
  br label %15

15:                                               ; preds = %14, %13, %6
  %16 = load i1, ptr %2, align 1
  ret i1 %16
}

; Function Attrs: mustprogress nounwind uwtable
define linkonce_odr hidden noundef ptr @_ZN5boost6nowide3utf10utf_traitsIcLi1EE6encodeIPcEET_jS6_(i32 noundef %0, ptr noundef %1) #1 comdat align 2 {
  %3 = alloca i32, align 4
  %4 = alloca ptr, align 8
  store i32 %0, ptr %3, align 4, !tbaa !9
  store ptr %1, ptr %4, align 8, !tbaa !3
  %5 = load i32, ptr %3, align 4, !tbaa !9
  %6 = icmp ule i32 %5, 127
  br i1 %6, label %7, label %12

7:                                                ; preds = %2
  %8 = load i32, ptr %3, align 4, !tbaa !9
  %9 = trunc i32 %8 to i8
  %10 = load ptr, ptr %4, align 8, !tbaa !3
  %11 = getelementptr inbounds nuw i8, ptr %10, i32 1
  store ptr %11, ptr %4, align 8, !tbaa !3
  store i8 %9, ptr %10, align 1, !tbaa !20
  br label %83

12:                                               ; preds = %2
  %13 = load i32, ptr %3, align 4, !tbaa !9
  %14 = icmp ule i32 %13, 2047
  br i1 %14, label %15, label %28

15:                                               ; preds = %12
  %16 = load i32, ptr %3, align 4, !tbaa !9
  %17 = lshr i32 %16, 6
  %18 = or i32 %17, 192
  %19 = trunc i32 %18 to i8
  %20 = load ptr, ptr %4, align 8, !tbaa !3
  %21 = getelementptr inbounds nuw i8, ptr %20, i32 1
  store ptr %21, ptr %4, align 8, !tbaa !3
  store i8 %19, ptr %20, align 1, !tbaa !20
  %22 = load i32, ptr %3, align 4, !tbaa !9
  %23 = and i32 %22, 63
  %24 = or i32 %23, 128
  %25 = trunc i32 %24 to i8
  %26 = load ptr, ptr %4, align 8, !tbaa !3
  %27 = getelementptr inbounds nuw i8, ptr %26, i32 1
  store ptr %27, ptr %4, align 8, !tbaa !3
  store i8 %25, ptr %26, align 1, !tbaa !20
  br label %82

28:                                               ; preds = %12
  %29 = load i32, ptr %3, align 4, !tbaa !9
  %30 = icmp ule i32 %29, 65535
  %31 = zext i1 %30 to i64
  %32 = call i64 @llvm.expect.i64(i64 %31, i64 1)
  %33 = icmp ne i64 %32, 0
  br i1 %33, label %34, label %54

34:                                               ; preds = %28
  %35 = load i32, ptr %3, align 4, !tbaa !9
  %36 = lshr i32 %35, 12
  %37 = or i32 %36, 224
  %38 = trunc i32 %37 to i8
  %39 = load ptr, ptr %4, align 8, !tbaa !3
  %40 = getelementptr inbounds nuw i8, ptr %39, i32 1
  store ptr %40, ptr %4, align 8, !tbaa !3
  store i8 %38, ptr %39, align 1, !tbaa !20
  %41 = load i32, ptr %3, align 4, !tbaa !9
  %42 = lshr i32 %41, 6
  %43 = and i32 %42, 63
  %44 = or i32 %43, 128
  %45 = trunc i32 %44 to i8
  %46 = load ptr, ptr %4, align 8, !tbaa !3
  %47 = getelementptr inbounds nuw i8, ptr %46, i32 1
  store ptr %47, ptr %4, align 8, !tbaa !3
  store i8 %45, ptr %46, align 1, !tbaa !20
  %48 = load i32, ptr %3, align 4, !tbaa !9
  %49 = and i32 %48, 63
  %50 = or i32 %49, 128
  %51 = trunc i32 %50 to i8
  %52 = load ptr, ptr %4, align 8, !tbaa !3
  %53 = getelementptr inbounds nuw i8, ptr %52, i32 1
  store ptr %53, ptr %4, align 8, !tbaa !3
  store i8 %51, ptr %52, align 1, !tbaa !20
  br label %81

54:                                               ; preds = %28
  %55 = load i32, ptr %3, align 4, !tbaa !9
  %56 = lshr i32 %55, 18
  %57 = or i32 %56, 240
  %58 = trunc i32 %57 to i8
  %59 = load ptr, ptr %4, align 8, !tbaa !3
  %60 = getelementptr inbounds nuw i8, ptr %59, i32 1
  store ptr %60, ptr %4, align 8, !tbaa !3
  store i8 %58, ptr %59, align 1, !tbaa !20
  %61 = load i32, ptr %3, align 4, !tbaa !9
  %62 = lshr i32 %61, 12
  %63 = and i32 %62, 63
  %64 = or i32 %63, 128
  %65 = trunc i32 %64 to i8
  %66 = load ptr, ptr %4, align 8, !tbaa !3
  %67 = getelementptr inbounds nuw i8, ptr %66, i32 1
  store ptr %67, ptr %4, align 8, !tbaa !3
  store i8 %65, ptr %66, align 1, !tbaa !20
  %68 = load i32, ptr %3, align 4, !tbaa !9
  %69 = lshr i32 %68, 6
  %70 = and i32 %69, 63
  %71 = or i32 %70, 128
  %72 = trunc i32 %71 to i8
  %73 = load ptr, ptr %4, align 8, !tbaa !3
  %74 = getelementptr inbounds nuw i8, ptr %73, i32 1
  store ptr %74, ptr %4, align 8, !tbaa !3
  store i8 %72, ptr %73, align 1, !tbaa !20
  %75 = load i32, ptr %3, align 4, !tbaa !9
  %76 = and i32 %75, 63
  %77 = or i32 %76, 128
  %78 = trunc i32 %77 to i8
  %79 = load ptr, ptr %4, align 8, !tbaa !3
  %80 = getelementptr inbounds nuw i8, ptr %79, i32 1
  store ptr %80, ptr %4, align 8, !tbaa !3
  store i8 %78, ptr %79, align 1, !tbaa !20
  br label %81

81:                                               ; preds = %54, %34
  br label %82

82:                                               ; preds = %81, %15
  br label %83

83:                                               ; preds = %82, %7
  %84 = load ptr, ptr %4, align 8, !tbaa !3
  ret ptr %84
}

; Function Attrs: mustprogress nounwind uwtable
define linkonce_odr hidden noundef i32 @_ZN5boost6nowide3utf10utf_traitsIwLi4EE6decodeIPKwEEjRT_S7_(ptr noundef nonnull align 8 dereferenceable(8) %0, ptr noundef %1) #1 comdat align 2 {
  %3 = alloca i32, align 4
  %4 = alloca ptr, align 8
  %5 = alloca ptr, align 8
  %6 = alloca i32, align 4
  %7 = alloca i32, align 4
  store ptr %0, ptr %4, align 8, !tbaa !3
  store ptr %1, ptr %5, align 8, !tbaa !3
  %8 = load ptr, ptr %4, align 8, !tbaa !3
  %9 = load ptr, ptr %8, align 8, !tbaa !3
  %10 = load ptr, ptr %5, align 8, !tbaa !3
  %11 = icmp eq ptr %9, %10
  %12 = zext i1 %11 to i64
  %13 = call i64 @llvm.expect.i64(i64 %12, i64 0)
  %14 = icmp ne i64 %13, 0
  br i1 %14, label %15, label %16

15:                                               ; preds = %2
  store i32 -2, ptr %3, align 4
  br label %31

16:                                               ; preds = %2
  call void @llvm.lifetime.start.p0(i64 4, ptr %6) #15
  %17 = load ptr, ptr %4, align 8, !tbaa !3
  %18 = load ptr, ptr %17, align 8, !tbaa !3
  %19 = getelementptr inbounds nuw i32, ptr %18, i32 1
  store ptr %19, ptr %17, align 8, !tbaa !3
  %20 = load i32, ptr %18, align 4, !tbaa !21
  store i32 %20, ptr %6, align 4, !tbaa !9
  %21 = load i32, ptr %6, align 4, !tbaa !9
  %22 = call noundef zeroext i1 @_ZN5boost6nowide3utf18is_valid_codepointEj(i32 noundef %21)
  %23 = xor i1 %22, true
  %24 = zext i1 %23 to i64
  %25 = call i64 @llvm.expect.i64(i64 %24, i64 0)
  %26 = icmp ne i64 %25, 0
  br i1 %26, label %27, label %28

27:                                               ; preds = %16
  store i32 -1, ptr %3, align 4
  store i32 1, ptr %7, align 4
  br label %30

28:                                               ; preds = %16
  %29 = load i32, ptr %6, align 4, !tbaa !9
  store i32 %29, ptr %3, align 4
  store i32 1, ptr %7, align 4
  br label %30

30:                                               ; preds = %28, %27
  call void @llvm.lifetime.end.p0(i64 4, ptr %6) #15
  br label %31

31:                                               ; preds = %30, %15
  %32 = load i32, ptr %3, align 4
  ret i32 %32
}

; Function Attrs: mustprogress uwtable
define noundef i64 @_ZN5boost6nowide6detail25console_input_buffer_base4readEv(ptr noundef nonnull align 8 dereferenceable(8289) %0) #0 align 2 {
  %2 = alloca i64, align 8
  %3 = alloca ptr, align 8
  %4 = alloca i64, align 8
  %5 = alloca i32, align 4
  %6 = alloca ptr, align 8
  %7 = alloca ptr, align 8
  %8 = alloca ptr, align 8
  %9 = alloca ptr, align 8
  %10 = alloca i32, align 4
  store ptr %0, ptr %3, align 8, !tbaa !3
  %11 = load ptr, ptr %3, align 8
  call void @llvm.lifetime.start.p0(i64 8, ptr %4) #15
  store i64 0, ptr %4, align 8, !tbaa !15
  %12 = getelementptr inbounds nuw %"class.boost::nowide::detail::console_input_buffer_base", ptr %11, i32 0, i32 2
  %13 = getelementptr inbounds [1024 x i32], ptr %12, i64 0, i64 0
  %14 = getelementptr inbounds nuw %"class.boost::nowide::detail::console_input_buffer_base", ptr %11, i32 0, i32 3
  %15 = load i64, ptr %14, align 8, !tbaa !23
  %16 = getelementptr inbounds nuw i32, ptr %13, i64 %15
  %17 = getelementptr inbounds nuw %"class.boost::nowide::detail::console_input_buffer_base", ptr %11, i32 0, i32 3
  %18 = load i64, ptr %17, align 8, !tbaa !23
  %19 = sub i64 1024, %18
  %20 = load ptr, ptr %11, align 8, !tbaa !7
  %21 = getelementptr inbounds ptr, ptr %20, i64 14
  %22 = load ptr, ptr %21, align 8
  %23 = call noundef zeroext i1 %22(ptr noundef nonnull align 8 dereferenceable(8289) %11, ptr noundef %16, i64 noundef %19, ptr noundef nonnull align 8 dereferenceable(8) %4)
  br i1 %23, label %25, label %24

24:                                               ; preds = %1
  store i64 0, ptr %2, align 8
  store i32 1, ptr %5, align 4
  br label %130

25:                                               ; preds = %1
  %26 = load i64, ptr %4, align 8, !tbaa !15
  %27 = getelementptr inbounds nuw %"class.boost::nowide::detail::console_input_buffer_base", ptr %11, i32 0, i32 3
  %28 = load i64, ptr %27, align 8, !tbaa !23
  %29 = add i64 %28, %26
  store i64 %29, ptr %27, align 8, !tbaa !23
  call void @llvm.lifetime.start.p0(i64 8, ptr %6) #15
  %30 = getelementptr inbounds nuw %"class.boost::nowide::detail::console_input_buffer_base", ptr %11, i32 0, i32 1
  %31 = getelementptr inbounds [4096 x i8], ptr %30, i64 0, i64 0
  store ptr %31, ptr %6, align 8, !tbaa !3
  call void @llvm.lifetime.start.p0(i64 8, ptr %7) #15
  %32 = getelementptr inbounds nuw %"class.boost::nowide::detail::console_input_buffer_base", ptr %11, i32 0, i32 2
  %33 = getelementptr inbounds [1024 x i32], ptr %32, i64 0, i64 0
  store ptr %33, ptr %7, align 8, !tbaa !3
  call void @llvm.lifetime.start.p0(i64 8, ptr %8) #15
  %34 = getelementptr inbounds nuw %"class.boost::nowide::detail::console_input_buffer_base", ptr %11, i32 0, i32 2
  %35 = getelementptr inbounds [1024 x i32], ptr %34, i64 0, i64 0
  %36 = getelementptr inbounds nuw %"class.boost::nowide::detail::console_input_buffer_base", ptr %11, i32 0, i32 3
  %37 = load i64, ptr %36, align 8, !tbaa !23
  %38 = getelementptr inbounds nuw i32, ptr %35, i64 %37
  store ptr %38, ptr %8, align 8, !tbaa !3
  br label %39

39:                                               ; preds = %65, %25
  %40 = load ptr, ptr %7, align 8, !tbaa !3
  %41 = load ptr, ptr %8, align 8, !tbaa !3
  %42 = icmp ne ptr %40, %41
  br i1 %42, label %43, label %66

43:                                               ; preds = %39
  call void @llvm.lifetime.start.p0(i64 8, ptr %9) #15
  %44 = load ptr, ptr %7, align 8, !tbaa !3
  store ptr %44, ptr %9, align 8, !tbaa !3
  call void @llvm.lifetime.start.p0(i64 4, ptr %10) #15
  %45 = load ptr, ptr %8, align 8, !tbaa !3
  %46 = call noundef i32 @_ZN5boost6nowide3utf10utf_traitsIwLi4EE6decodeIPKwEEjRT_S7_(ptr noundef nonnull align 8 dereferenceable(8) %7, ptr noundef %45)
  store i32 %46, ptr %10, align 4, !tbaa !9
  %47 = load i32, ptr %10, align 4, !tbaa !9
  %48 = icmp eq i32 %47, -2
  br i1 %48, label %49, label %51

49:                                               ; preds = %43
  %50 = load ptr, ptr %9, align 8, !tbaa !3
  store ptr %50, ptr %7, align 8, !tbaa !3
  store i32 3, ptr %5, align 4
  br label %63

51:                                               ; preds = %43
  %52 = load i32, ptr %10, align 4, !tbaa !9
  %53 = icmp eq i32 %52, -1
  br i1 %53, label %54, label %55

54:                                               ; preds = %51
  store i32 65533, ptr %10, align 4, !tbaa !9
  br label %55

55:                                               ; preds = %54, %51
  %56 = load i32, ptr %10, align 4, !tbaa !9
  %57 = icmp ne i32 %56, 13
  br i1 %57, label %58, label %62

58:                                               ; preds = %55
  %59 = load i32, ptr %10, align 4, !tbaa !9
  %60 = load ptr, ptr %6, align 8, !tbaa !3
  %61 = call noundef ptr @_ZN5boost6nowide3utf10utf_traitsIcLi1EE6encodeIPcEET_jS6_(i32 noundef %59, ptr noundef %60)
  store ptr %61, ptr %6, align 8, !tbaa !3
  br label %62

62:                                               ; preds = %58, %55
  store i32 0, ptr %5, align 4
  br label %63

63:                                               ; preds = %62, %49
  call void @llvm.lifetime.end.p0(i64 4, ptr %10) #15
  call void @llvm.lifetime.end.p0(i64 8, ptr %9) #15
  %64 = load i32, ptr %5, align 4
  switch i32 %64, label %132 [
    i32 0, label %65
    i32 3, label %66
  ]

65:                                               ; preds = %63
  br label %39, !llvm.loop !39

66:                                               ; preds = %63, %39
  %67 = load ptr, ptr %8, align 8, !tbaa !3
  %68 = load ptr, ptr %7, align 8, !tbaa !3
  %69 = ptrtoint ptr %67 to i64
  %70 = ptrtoint ptr %68 to i64
  %71 = sub i64 %69, %70
  %72 = sdiv exact i64 %71, 4
  %73 = getelementptr inbounds nuw %"class.boost::nowide::detail::console_input_buffer_base", ptr %11, i32 0, i32 3
  store i64 %72, ptr %73, align 8, !tbaa !23
  %74 = getelementptr inbounds nuw %"class.boost::nowide::detail::console_input_buffer_base", ptr %11, i32 0, i32 3
  %75 = load i64, ptr %74, align 8, !tbaa !23
  %76 = icmp ugt i64 %75, 0
  br i1 %76, label %77, label %88

77:                                               ; preds = %66
  %78 = getelementptr inbounds nuw %"class.boost::nowide::detail::console_input_buffer_base", ptr %11, i32 0, i32 2
  %79 = getelementptr inbounds [1024 x i32], ptr %78, i64 0, i64 0
  %80 = load ptr, ptr %8, align 8, !tbaa !3
  %81 = getelementptr inbounds nuw %"class.boost::nowide::detail::console_input_buffer_base", ptr %11, i32 0, i32 3
  %82 = load i64, ptr %81, align 8, !tbaa !23
  %83 = sub i64 0, %82
  %84 = getelementptr inbounds i32, ptr %80, i64 %83
  %85 = getelementptr inbounds nuw %"class.boost::nowide::detail::console_input_buffer_base", ptr %11, i32 0, i32 3
  %86 = load i64, ptr %85, align 8, !tbaa !23
  %87 = mul i64 4, %86
  call void @llvm.memmove.p0.p0.i64(ptr align 8 %79, ptr align 4 %84, i64 %87, i1 false)
  br label %88

88:                                               ; preds = %77, %66
  %89 = getelementptr inbounds nuw %"class.boost::nowide::detail::console_input_buffer_base", ptr %11, i32 0, i32 5
  %90 = load i8, ptr %89, align 8, !tbaa !30, !range !40, !noundef !41
  %91 = trunc i8 %90 to i1
  br i1 %91, label %92, label %108

92:                                               ; preds = %88
  %93 = load ptr, ptr %6, align 8, !tbaa !3
  %94 = getelementptr inbounds nuw %"class.boost::nowide::detail::console_input_buffer_base", ptr %11, i32 0, i32 1
  %95 = getelementptr inbounds [4096 x i8], ptr %94, i64 0, i64 0
  %96 = icmp ugt ptr %93, %95
  br i1 %96, label %97, label %108

97:                                               ; preds = %92
  %98 = getelementptr inbounds nuw %"class.boost::nowide::detail::console_input_buffer_base", ptr %11, i32 0, i32 1
  %99 = getelementptr inbounds [4096 x i8], ptr %98, i64 0, i64 0
  %100 = load i8, ptr %99, align 8, !tbaa !20
  %101 = sext i8 %100 to i32
  %102 = icmp eq i32 %101, 26
  br i1 %102, label %103, label %108

103:                                              ; preds = %97
  %104 = load ptr, ptr %11, align 8, !tbaa !7
  %105 = getelementptr inbounds ptr, ptr %104, i64 6
  %106 = load ptr, ptr %105, align 8
  %107 = call noundef i32 %106(ptr noundef nonnull align 8 dereferenceable(8289) %11)
  store i64 0, ptr %2, align 8
  store i32 1, ptr %5, align 4
  br label %129

108:                                              ; preds = %97, %92, %88
  %109 = load ptr, ptr %6, align 8, !tbaa !3
  %110 = getelementptr inbounds nuw %"class.boost::nowide::detail::console_input_buffer_base", ptr %11, i32 0, i32 1
  %111 = getelementptr inbounds [4096 x i8], ptr %110, i64 0, i64 0
  %112 = icmp eq ptr %109, %111
  br i1 %112, label %119, label %113

113:                                              ; preds = %108
  %114 = load ptr, ptr %6, align 8, !tbaa !3
  %115 = getelementptr inbounds i8, ptr %114, i64 -1
  %116 = load i8, ptr %115, align 1, !tbaa !20
  %117 = sext i8 %116 to i32
  %118 = icmp eq i32 %117, 10
  br label %119

119:                                              ; preds = %113, %108
  %120 = phi i1 [ true, %108 ], [ %118, %113 ]
  %121 = getelementptr inbounds nuw %"class.boost::nowide::detail::console_input_buffer_base", ptr %11, i32 0, i32 5
  %122 = zext i1 %120 to i8
  store i8 %122, ptr %121, align 8, !tbaa !30
  %123 = load ptr, ptr %6, align 8, !tbaa !3
  %124 = getelementptr inbounds nuw %"class.boost::nowide::detail::console_input_buffer_base", ptr %11, i32 0, i32 1
  %125 = getelementptr inbounds [4096 x i8], ptr %124, i64 0, i64 0
  %126 = ptrtoint ptr %123 to i64
  %127 = ptrtoint ptr %125 to i64
  %128 = sub i64 %126, %127
  store i64 %128, ptr %2, align 8
  store i32 1, ptr %5, align 4
  br label %129

129:                                              ; preds = %119, %103
  call void @llvm.lifetime.end.p0(i64 8, ptr %8) #15
  call void @llvm.lifetime.end.p0(i64 8, ptr %7) #15
  call void @llvm.lifetime.end.p0(i64 8, ptr %6) #15
  br label %130

130:                                              ; preds = %129, %24
  call void @llvm.lifetime.end.p0(i64 8, ptr %4) #15
  %131 = load i64, ptr %2, align 8
  ret i64 %131

132:                                              ; preds = %63
  unreachable
}