; Function Attrs: mustprogress uwtable
define noundef range(i64 -9223372036854775808, 9223372036854775744) i64 @_ZN5boost6nowide6detail25console_input_buffer_base4readEv(ptr noundef nonnull align 8 dereferenceable(8289) %0) local_unnamed_addr #0 align 2 {
  %2 = alloca i64, align 8
  call void @llvm.lifetime.start.p0(i64 8, ptr nonnull %2) #14
  store i64 0, ptr %2, align 8, !tbaa !17
  %.ptr56 = getelementptr inbounds nuw i8, ptr %0, i64 4160
  %3 = getelementptr inbounds nuw i8, ptr %0, i64 8256
  %4 = load i64, ptr %3, align 8, !tbaa !25
  %5 = getelementptr inbounds nuw i32, ptr %.ptr56, i64 %4
  %6 = sub i64 1024, %4
  %7 = load ptr, ptr %0, align 8, !tbaa !3
  %8 = getelementptr inbounds i8, ptr %7, i64 112
  %9 = load ptr, ptr %8, align 8
  %10 = call noundef zeroext i1 %9(ptr noundef nonnull align 8 dereferenceable(8289) %0, ptr noundef nonnull %5, i64 noundef %6, ptr noundef nonnull align 8 dereferenceable(8) %2)
  br i1 %10, label %11, label %90

11:                                               ; preds = %1
  %12 = load i64, ptr %2, align 8, !tbaa !17
  %13 = load i64, ptr %3, align 8, !tbaa !25
  %14 = add i64 %13, %12
  %.ptr = getelementptr inbounds nuw i8, ptr %0, i64 64
  %.idx = shl nuw nsw i64 %14, 2
  %15 = getelementptr inbounds i8, ptr %0, i64 %.idx
  %.ptr57 = getelementptr inbounds i8, ptr %15, i64 4160
  %.not50 = icmp eq i64 %14, 0
  br i1 %.not50, label %_ZN5boost6nowide3utf10utf_traitsIcLi1EE6encodeIPcEET_jS6_.exit.thread, label %_ZN5boost6nowide3utf10utf_traitsIwLi4EE6decodeIPKwEEjRT_S7_.exit

_ZN5boost6nowide3utf10utf_traitsIwLi4EE6decodeIPKwEEjRT_S7_.exit: ; preds = %11, %_ZN5boost6nowide3utf10utf_traitsIcLi1EE6encodeIPcEET_jS6_.exit
  %.020.ptr53 = phi ptr [ %.020.ptr, %_ZN5boost6nowide3utf10utf_traitsIcLi1EE6encodeIPcEET_jS6_.exit ], [ %.ptr, %11 ]
  %.020.idx52 = phi i64 [ %.2.idx, %_ZN5boost6nowide3utf10utf_traitsIcLi1EE6encodeIPcEET_jS6_.exit ], [ 64, %11 ]
  %.03451 = phi ptr [ %16, %_ZN5boost6nowide3utf10utf_traitsIcLi1EE6encodeIPcEET_jS6_.exit ], [ %.ptr56, %11 ]
  %16 = getelementptr inbounds nuw i8, ptr %.03451, i64 4
  %17 = load i32, ptr %.03451, align 4, !tbaa !13
  %18 = icmp ugt i32 %17, 1114111
  %19 = and i32 %17, 2095104
  %or.cond.i.i = icmp eq i32 %19, 55296
  %.0.i.i.not = or i1 %18, %or.cond.i.i
  %spec.store.select = select i1 %.0.i.i.not, i32 65533, i32 %17
  %.not27 = icmp eq i32 %spec.store.select, 13
  br i1 %.not27, label %_ZN5boost6nowide3utf10utf_traitsIcLi1EE6encodeIPcEET_jS6_.exit, label %20

20:                                               ; preds = %_ZN5boost6nowide3utf10utf_traitsIwLi4EE6decodeIPKwEEjRT_S7_.exit
  %21 = icmp ult i32 %spec.store.select, 128
  br i1 %21, label %22, label %24

22:                                               ; preds = %20
  %23 = trunc nuw nsw i32 %spec.store.select to i8
  %.020.add44 = add nuw nsw i64 %.020.idx52, 1
  store i8 %23, ptr %.020.ptr53, align 1, !tbaa !21
  br label %_ZN5boost6nowide3utf10utf_traitsIcLi1EE6encodeIPcEET_jS6_.exit

24:                                               ; preds = %20
  %25 = icmp ult i32 %spec.store.select, 2048
  br i1 %25, label %26, label %34

26:                                               ; preds = %24
  %27 = lshr i32 %spec.store.select, 6
  %28 = trunc nuw i32 %27 to i8
  %29 = or disjoint i8 %28, -64
  %30 = getelementptr inbounds nuw i8, ptr %.020.ptr53, i64 1
  store i8 %29, ptr %.020.ptr53, align 1, !tbaa !21
  %31 = trunc i32 %spec.store.select to i8
  %32 = and i8 %31, 63
  %33 = or disjoint i8 %32, -128
  %.020.add43 = add nuw nsw i64 %.020.idx52, 2
  store i8 %33, ptr %30, align 1, !tbaa !21
  br label %_ZN5boost6nowide3utf10utf_traitsIcLi1EE6encodeIPcEET_jS6_.exit

34:                                               ; preds = %24
  %35 = icmp ult i32 %spec.store.select, 65536
  %36 = getelementptr inbounds nuw i8, ptr %.020.ptr53, i64 1
  %37 = getelementptr inbounds nuw i8, ptr %.020.ptr53, i64 2
  br i1 %35, label %38, label %49, !prof !20

38:                                               ; preds = %34
  %39 = lshr i32 %spec.store.select, 12
  %40 = trunc nuw i32 %39 to i8
  %41 = or disjoint i8 %40, -32
  store i8 %41, ptr %.020.ptr53, align 1, !tbaa !21
  %42 = lshr i32 %spec.store.select, 6
  %43 = trunc i32 %42 to i8
  %44 = and i8 %43, 63
  %45 = or disjoint i8 %44, -128
  store i8 %45, ptr %36, align 1, !tbaa !21
  %46 = trunc i32 %spec.store.select to i8
  %47 = and i8 %46, 63
  %48 = or disjoint i8 %47, -128
  %.020.add42 = add nuw nsw i64 %.020.idx52, 3
  store i8 %48, ptr %37, align 1, !tbaa !21
  br label %_ZN5boost6nowide3utf10utf_traitsIcLi1EE6encodeIPcEET_jS6_.exit

49:                                               ; preds = %34
  %50 = lshr i32 %spec.store.select, 18
  %51 = trunc i32 %50 to i8
  %52 = or i8 %51, -16
  store i8 %52, ptr %.020.ptr53, align 1, !tbaa !21
  %53 = lshr i32 %spec.store.select, 12
  %54 = trunc i32 %53 to i8
  %55 = and i8 %54, 63
  %56 = or disjoint i8 %55, -128
  store i8 %56, ptr %36, align 1, !tbaa !21
  %57 = lshr i32 %spec.store.select, 6
  %58 = trunc i32 %57 to i8
  %59 = and i8 %58, 63
  %60 = or disjoint i8 %59, -128
  %61 = getelementptr inbounds nuw i8, ptr %.020.ptr53, i64 3
  store i8 %60, ptr %37, align 1, !tbaa !21
  %62 = trunc i32 %spec.store.select to i8
  %63 = and i8 %62, 63
  %64 = or disjoint i8 %63, -128
  %.020.add = add nuw nsw i64 %.020.idx52, 4
  store i8 %64, ptr %61, align 1, !tbaa !21
  br label %_ZN5boost6nowide3utf10utf_traitsIcLi1EE6encodeIPcEET_jS6_.exit

_ZN5boost6nowide3utf10utf_traitsIcLi1EE6encodeIPcEET_jS6_.exit: ; preds = %49, %38, %26, %22, %_ZN5boost6nowide3utf10utf_traitsIwLi4EE6decodeIPKwEEjRT_S7_.exit
  %.2.idx = phi i64 [ %.020.idx52, %_ZN5boost6nowide3utf10utf_traitsIwLi4EE6decodeIPKwEEjRT_S7_.exit ], [ %.020.add44, %22 ], [ %.020.add43, %26 ], [ %.020.add42, %38 ], [ %.020.add, %49 ]
  %.020.ptr = getelementptr inbounds nuw i8, ptr %0, i64 %.2.idx
  %.not = icmp eq ptr %16, %.ptr57
  br i1 %.not, label %_ZN5boost6nowide3utf10utf_traitsIcLi1EE6encodeIPcEET_jS6_.exit.thread, label %_ZN5boost6nowide3utf10utf_traitsIwLi4EE6decodeIPKwEEjRT_S7_.exit

_ZN5boost6nowide3utf10utf_traitsIcLi1EE6encodeIPcEET_jS6_.exit.thread: ; preds = %_ZN5boost6nowide3utf10utf_traitsIcLi1EE6encodeIPcEET_jS6_.exit, %11
  %.034.lcssa = phi ptr [ %.ptr56, %11 ], [ %.ptr57, %_ZN5boost6nowide3utf10utf_traitsIcLi1EE6encodeIPcEET_jS6_.exit ]
  %.020.idx.lcssa = phi i64 [ 64, %11 ], [ %.2.idx, %_ZN5boost6nowide3utf10utf_traitsIcLi1EE6encodeIPcEET_jS6_.exit ]
  %65 = ptrtoint ptr %.ptr57 to i64
  %66 = ptrtoint ptr %.034.lcssa to i64
  %67 = sub i64 %65, %66
  %68 = ashr exact i64 %67, 2
  store i64 %68, ptr %3, align 8, !tbaa !25
  %69 = getelementptr inbounds nuw i8, ptr %0, i64 8288
  %70 = load i8, ptr %69, align 8, !tbaa !32, !range !39, !noundef !40
  %71 = trunc nuw i8 %70 to i1
  %72 = icmp sgt i64 %.020.idx.lcssa, 64
  %or.cond = select i1 %71, i1 %72, i1 false
  %73 = load i8, ptr %.ptr, align 8
  %74 = icmp eq i8 %73, 26
  %or.cond30 = select i1 %or.cond, i1 %74, i1 false
  br i1 %or.cond30, label %75, label %80

75:                                               ; preds = %_ZN5boost6nowide3utf10utf_traitsIcLi1EE6encodeIPcEET_jS6_.exit.thread
  %76 = load ptr, ptr %0, align 8, !tbaa !3
  %77 = getelementptr inbounds i8, ptr %76, i64 48
  %78 = load ptr, ptr %77, align 8
  %79 = call noundef i32 %78(ptr noundef nonnull align 8 dereferenceable(8289) %0)
  br label %90

80:                                               ; preds = %_ZN5boost6nowide3utf10utf_traitsIcLi1EE6encodeIPcEET_jS6_.exit.thread
  %81 = icmp eq i64 %.020.idx.lcssa, 64
  br i1 %81, label %88, label %82

82:                                               ; preds = %80
  %83 = getelementptr inbounds nuw i8, ptr %0, i64 %.020.idx.lcssa
  %84 = getelementptr inbounds i8, ptr %83, i64 -1
  %85 = load i8, ptr %84, align 1, !tbaa !21
  %86 = icmp eq i8 %85, 10
  %87 = zext i1 %86 to i8
  br label %88

88:                                               ; preds = %82, %80
  %89 = phi i8 [ 1, %80 ], [ %87, %82 ]
  store i8 %89, ptr %69, align 8, !tbaa !32
  %gepdiff = add nsw i64 %.020.idx.lcssa, -64
  br label %90

90:                                               ; preds = %75, %88, %1
  %.0 = phi i64 [ 0, %1 ], [ 0, %75 ], [ %gepdiff, %88 ]
  call void @llvm.lifetime.end.p0(i64 8, ptr nonnull %2) #14
  ret i64 %.0
}